; Function Attrs: nounwind uwtable
define internal noundef i32 @decoder_destroy(ptr noundef %0) #0 {
  %2 = getelementptr inbounds nuw i8, ptr %0, i64 27120
  %3 = load ptr, ptr %2, align 8
  %.not = icmp eq ptr %3, null
  br i1 %.not, label %23, label %4

4:                                                ; preds = %1
  %5 = getelementptr inbounds nuw i8, ptr %3, i64 32
  %6 = load ptr, ptr %5, align 8
  %7 = tail call ptr @aom_get_worker_interface() #12
  %8 = getelementptr inbounds nuw i8, ptr %7, i64 40
  %9 = load ptr, ptr %8, align 8
  tail call void %9(ptr noundef nonnull %3) #12
  %10 = load ptr, ptr %6, align 8
  %11 = getelementptr inbounds i8, ptr %10, i64 75800
  %12 = load ptr, ptr %11, align 8
  tail call void @aom_free(ptr noundef %12) #12
  %13 = load ptr, ptr %6, align 8
  %14 = getelementptr inbounds i8, ptr %13, i64 75800
  store ptr null, ptr %14, align 8
  %15 = load ptr, ptr %6, align 8
  %16 = getelementptr inbounds nuw i8, ptr %15, i64 47968
  tail call void @av1_remove_common(ptr noundef nonnull %16) #12
  %17 = load ptr, ptr %6, align 8
  %18 = getelementptr inbounds nuw i8, ptr %17, i64 47968
  tail call void @av1_free_restoration_buffers(ptr noundef nonnull %18) #12
  %19 = load ptr, ptr %6, align 8
  tail call void @av1_decoder_remove(ptr noundef %19) #12
  tail call void @aom_free(ptr noundef nonnull %6) #12
  %20 = getelementptr inbounds nuw i8, ptr %0, i64 27408
  %21 = load ptr, ptr %20, align 8
  %22 = tail call i32 @pthread_mutex_destroy(ptr noundef %21) #12
  br label %23

23:                                               ; preds = %4, %1
  %24 = getelementptr inbounds nuw i8, ptr %0, i64 27408
  %25 = load ptr, ptr %24, align 8
  %.not25 = icmp eq ptr %25, null
  br i1 %.not25, label %43, label %.preheader

.preheader:                                       ; preds = %23
  %26 = getelementptr inbounds nuw i8, ptr %0, i64 27392
  %27 = load i64, ptr %26, align 8
  %.not27 = icmp eq i64 %27, 0
  br i1 %.not27, label %._crit_edge, label %.lr.ph

.lr.ph:                                           ; preds = %.preheader
  %28 = getelementptr inbounds nuw i8, ptr %0, i64 27296
  br label %29

29:                                               ; preds = %.lr.ph, %29
  %.026 = phi i64 [ 0, %.lr.ph ], [ %37, %29 ]
  %30 = load ptr, ptr %24, align 8
  %31 = getelementptr inbounds nuw i8, ptr %30, i64 56
  %32 = load ptr, ptr %31, align 8
  %33 = getelementptr inbounds nuw i8, ptr %30, i64 40
  %34 = load ptr, ptr %33, align 8
  %35 = getelementptr inbounds [4 x %struct.aom_codec_frame_buffer], ptr %28, i64 0, i64 %.026
  %36 = tail call i32 %32(ptr noundef %34, ptr noundef nonnull %35) #12
  %37 = add nuw i64 %.026, 1
  %38 = load i64, ptr %26, align 8
  %39 = icmp ult i64 %37, %38
  br i1 %39, label %29, label %._crit_edge.loopexit, !llvm.loop !4

._crit_edge.loopexit:                             ; preds = %29
  %.pre = load ptr, ptr %24, align 8
  br label %._crit_edge

._crit_edge:                                      ; preds = %._crit_edge.loopexit, %.preheader
  %40 = phi ptr [ %.pre, %._crit_edge.loopexit ], [ %25, %.preheader ]
  tail call void @av1_free_ref_frame_buffers(ptr noundef %40) #12
  %41 = load ptr, ptr %24, align 8
  %42 = getelementptr inbounds nuw i8, ptr %41, i64 365120
  tail call void @av1_free_internal_frame_buffers(ptr noundef nonnull %42) #12
  br label %43

43:                                               ; preds = %._crit_edge, %23
  %44 = load ptr, ptr %2, align 8
  tail call void @aom_free(ptr noundef %44) #12
  %45 = load ptr, ptr %24, align 8
  tail call void @aom_free(ptr noundef %45) #12
  %46 = getelementptr inbounds nuw i8, ptr %0, i64 248
  tail call void @aom_img_free(ptr noundef nonnull %46) #12
  tail call void @aom_free(ptr noundef nonnull %0) #12
  ret i32 0
}